; Function Attrs: nounwind uwtable
define void @Nwk_ObjReplace(ptr noundef %0, ptr noundef %1) local_unnamed_addr #0 {
  %3 = load ptr, ptr %0, align 8
  %4 = getelementptr inbounds nuw i8, ptr %3, i64 96
  %5 = load ptr, ptr %4, align 8
  tail call void @Nwk_ObjCollectFanouts(ptr noundef nonnull %0, ptr noundef %5)
  %6 = getelementptr i8, ptr %5, i64 4
  %.val1113.i = load i32, ptr %6, align 4
  %7 = icmp sgt i32 %.val1113.i, 0
  br i1 %7, label %.lr.ph.i, label %Nwk_ObjTransferFanout.exit

.lr.ph.i:                                         ; preds = %2
  %8 = getelementptr i8, ptr %5, i64 8
  br label %9

9:                                                ; preds = %9, %.lr.ph.i
  %indvars.iv.i = phi i64 [ 0, %.lr.ph.i ], [ %indvars.iv.next.i, %9 ]
  %.val12.i = load ptr, ptr %8, align 8
  %10 = getelementptr inbounds nuw ptr, ptr %.val12.i, i64 %indvars.iv.i
  %11 = load ptr, ptr %10, align 8
  tail call void @Nwk_ObjPatchFanin(ptr noundef %11, ptr noundef nonnull %0, ptr noundef %1)
  %indvars.iv.next.i = add nuw nsw i64 %indvars.iv.i, 1
  %.val11.i = load i32, ptr %6, align 4
  %12 = sext i32 %.val11.i to i64
  %13 = icmp slt i64 %indvars.iv.next.i, %12
  br i1 %13, label %9, label %Nwk_ObjTransferFanout.exit, !llvm.loop !13

Nwk_ObjTransferFanout.exit:                       ; preds = %9, %2
  tail call void @Nwk_ManDeleteNode_rec(ptr noundef nonnull %0) #11
  ret void
}